target datalayout = "e-m:e-p270:32:32-p271:32:32-p272:64:64-i64:64-i128:128-f80:128-n8:16:32:64-S128"
target triple = "x86_64-pc-linux-gnu"

%"struct.duckdb_libpgquery::PGList" = type { i32, i32, ptr, ptr }
%"struct.duckdb_libpgquery::PGListCell" = type { %union.anon, ptr }
%union.anon = type { ptr }

; Function Attrs: mustprogress nounwind uwtable
define hidden noundef ptr @_ZN17duckdb_libpgquery13list_nth_cellEPKNS_6PGListEi(ptr noundef %0, i32 noundef %1) #4 {
  %3 = alloca ptr, align 8
  %4 = alloca ptr, align 8
  %5 = alloca i32, align 4
  %6 = alloca ptr, align 8
  %7 = alloca i32, align 4
  store ptr %0, ptr %4, align 8, !tbaa !3
  store i32 %1, ptr %5, align 4, !tbaa !22
  call void @llvm.lifetime.start.p0(i64 8, ptr %6) #6
  %8 = load i32, ptr %5, align 4, !tbaa !22
  %9 = load ptr, ptr %4, align 8, !tbaa !3
  %10 = getelementptr inbounds nuw %"struct.duckdb_libpgquery::PGList", ptr %9, i32 0, i32 1
  %11 = load i32, ptr %10, align 4, !tbaa !20
  %12 = sub nsw i32 %11, 1
  %13 = icmp eq i32 %8, %12
  br i1 %13, label %14, label %18

14:                                               ; preds = %2
  %15 = load ptr, ptr %4, align 8, !tbaa !3
  %16 = getelementptr inbounds nuw %"struct.duckdb_libpgquery::PGList", ptr %15, i32 0, i32 3
  %17 = load ptr, ptr %16, align 8, !tbaa !9
  store ptr %17, ptr %3, align 8
  store i32 1, ptr %7, align 4
  br label %33

18:                                               ; preds = %2
  %19 = load ptr, ptr %4, align 8, !tbaa !3
  %20 = getelementptr inbounds nuw %"struct.duckdb_libpgquery::PGList", ptr %19, i32 0, i32 2
  %21 = load ptr, ptr %20, align 8, !tbaa !21
  store ptr %21, ptr %6, align 8, !tbaa !16
  br label %22

22:                                               ; preds = %27, %18
  %23 = load i32, ptr %5, align 4, !tbaa !22
  %24 = add nsw i32 %23, -1
  store i32 %24, ptr %5, align 4, !tbaa !22
  %25 = icmp sgt i32 %23, 0
  br i1 %25, label %26, label %31

26:                                               ; preds = %22
  br label %27

27:                                               ; preds = %26
  %28 = load ptr, ptr %6, align 8, !tbaa !16
  %29 = getelementptr inbounds nuw %"struct.duckdb_libpgquery::PGListCell", ptr %28, i32 0, i32 1
  %30 = load ptr, ptr %29, align 8, !tbaa !17
  store ptr %30, ptr %6, align 8, !tbaa !16
  br label %22, !llvm.loop !25

31:                                               ; preds = %22
  %32 = load ptr, ptr %6, align 8, !tbaa !16
  store ptr %32, ptr %3, align 8
  store i32 1, ptr %7, align 4
  br label %33

33:                                               ; preds = %31, %14
  call void @llvm.lifetime.end.p0(i64 8, ptr %6) #6
  %34 = load ptr, ptr %3, align 8
  ret ptr %34
}