; Function Attrs: mustprogress nofree norecurse nosync nounwind willreturn memory(read, inaccessiblemem: none) uwtable
define hidden noundef ptr @_ZN17duckdb_libpgquery13list_nth_cellEPKNS_6PGListEi(ptr noundef readonly captures(none) %0, i32 noundef %1) local_unnamed_addr #3 {
  %3 = getelementptr inbounds nuw i8, ptr %0, i64 4
  %4 = load i32, ptr %3, align 4, !tbaa !13
  %5 = add nsw i32 %4, -1
  %6 = icmp eq i32 %1, %5
  br i1 %6, label %7, label %.preheader

7:                                                ; preds = %2
  %8 = getelementptr inbounds nuw i8, ptr %0, i64 16
  %9 = load ptr, ptr %8, align 8, !tbaa !15
  br label %.loopexit

.preheader:                                       ; preds = %2, %.preheader
  %.07 = phi i32 [ %11, %.preheader ], [ %1, %2 ]
  %.pn = phi ptr [ %.0, %.preheader ], [ %0, %2 ]
  %.0.in = getelementptr inbounds nuw i8, ptr %.pn, i64 8
  %.0 = load ptr, ptr %.0.in, align 8, !tbaa !17
  %10 = icmp sgt i32 %.07, 0
  %11 = add nsw i32 %.07, -1
  br i1 %10, label %.preheader, label %.loopexit, !llvm.loop !20

.loopexit:                                        ; preds = %.preheader, %7
  %.08 = phi ptr [ %9, %7 ], [ %.0, %.preheader ]
  ret ptr %.08
}